target datalayout = "e-m:e-p270:32:32-p271:32:32-p272:64:64-i64:64-i128:128-f80:128-n8:16:32:64-S128"
target triple = "x86_64-pc-linux-gnu"

; Function Attrs: inlinehint nounwind uwtable
define available_externally void @iter_54(ptr noundef %0) #9 {
  %2 = alloca ptr, align 8
  %3 = alloca float, align 4
  %4 = alloca float, align 4
  %5 = alloca float, align 4
  %6 = alloca float, align 4
  %7 = alloca float, align 4
  %8 = alloca float, align 4
  %9 = alloca float, align 4
  %10 = alloca float, align 4
  store ptr %0, ptr %2, align 8, !tbaa !58
  call void @llvm.lifetime.start.p0(i64 4, ptr %3) #11
  call void @llvm.lifetime.start.p0(i64 4, ptr %4) #11
  call void @llvm.lifetime.start.p0(i64 4, ptr %5) #11
  call void @llvm.lifetime.start.p0(i64 4, ptr %6) #11
  call void @llvm.lifetime.start.p0(i64 4, ptr %7) #11
  call void @llvm.lifetime.start.p0(i64 4, ptr %8) #11
  call void @llvm.lifetime.start.p0(i64 4, ptr %9) #11
  call void @llvm.lifetime.start.p0(i64 4, ptr %10) #11
  %11 = load ptr, ptr %2, align 8, !tbaa !58
  %12 = getelementptr inbounds float, ptr %11, i64 0
  %13 = load float, ptr %12, align 4, !tbaa !28
  %14 = load ptr, ptr %2, align 8, !tbaa !58
  %15 = getelementptr inbounds float, ptr %14, i64 -4
  %16 = load float, ptr %15, align 4, !tbaa !28
  %17 = fsub float %13, %16
  store float %17, ptr %3, align 4, !tbaa !28
  %18 = load ptr, ptr %2, align 8, !tbaa !58
  %19 = getelementptr inbounds float, ptr %18, i64 0
  %20 = load float, ptr %19, align 4, !tbaa !28
  %21 = load ptr, ptr %2, align 8, !tbaa !58
  %22 = getelementptr inbounds float, ptr %21, i64 -4
  %23 = load float, ptr %22, align 4, !tbaa !28
  %24 = fadd float %20, %23
  store float %24, ptr %7, align 4, !tbaa !28
  %25 = load ptr, ptr %2, align 8, !tbaa !58
  %26 = getelementptr inbounds float, ptr %25, i64 -2
  %27 = load float, ptr %26, align 4, !tbaa !28
  %28 = load ptr, ptr %2, align 8, !tbaa !58
  %29 = getelementptr inbounds float, ptr %28, i64 -6
  %30 = load float, ptr %29, align 4, !tbaa !28
  %31 = fadd float %27, %30
  store float %31, ptr %9, align 4, !tbaa !28
  %32 = load ptr, ptr %2, align 8, !tbaa !58
  %33 = getelementptr inbounds float, ptr %32, i64 -2
  %34 = load float, ptr %33, align 4, !tbaa !28
  %35 = load ptr, ptr %2, align 8, !tbaa !58
  %36 = getelementptr inbounds float, ptr %35, i64 -6
  %37 = load float, ptr %36, align 4, !tbaa !28
  %38 = fsub float %34, %37
  store float %38, ptr %5, align 4, !tbaa !28
  %39 = load float, ptr %7, align 4, !tbaa !28
  %40 = load float, ptr %9, align 4, !tbaa !28
  %41 = fadd float %39, %40
  %42 = load ptr, ptr %2, align 8, !tbaa !58
  %43 = getelementptr inbounds float, ptr %42, i64 0
  store float %41, ptr %43, align 4, !tbaa !28
  %44 = load float, ptr %7, align 4, !tbaa !28
  %45 = load float, ptr %9, align 4, !tbaa !28
  %46 = fsub float %44, %45
  %47 = load ptr, ptr %2, align 8, !tbaa !58
  %48 = getelementptr inbounds float, ptr %47, i64 -2
  store float %46, ptr %48, align 4, !tbaa !28
  %49 = load ptr, ptr %2, align 8, !tbaa !58
  %50 = getelementptr inbounds float, ptr %49, i64 -3
  %51 = load float, ptr %50, align 4, !tbaa !28
  %52 = load ptr, ptr %2, align 8, !tbaa !58
  %53 = getelementptr inbounds float, ptr %52, i64 -7
  %54 = load float, ptr %53, align 4, !tbaa !28
  %55 = fsub float %51, %54
  store float %55, ptr %6, align 4, !tbaa !28
  %56 = load float, ptr %3, align 4, !tbaa !28
  %57 = load float, ptr %6, align 4, !tbaa !28
  %58 = fadd float %56, %57
  %59 = load ptr, ptr %2, align 8, !tbaa !58
  %60 = getelementptr inbounds float, ptr %59, i64 -4
  store float %58, ptr %60, align 4, !tbaa !28
  %61 = load float, ptr %3, align 4, !tbaa !28
  %62 = load float, ptr %6, align 4, !tbaa !28
  %63 = fsub float %61, %62
  %64 = load ptr, ptr %2, align 8, !tbaa !58
  %65 = getelementptr inbounds float, ptr %64, i64 -6
  store float %63, ptr %65, align 4, !tbaa !28
  %66 = load ptr, ptr %2, align 8, !tbaa !58
  %67 = getelementptr inbounds float, ptr %66, i64 -1
  %68 = load float, ptr %67, align 4, !tbaa !28
  %69 = load ptr, ptr %2, align 8, !tbaa !58
  %70 = getelementptr inbounds float, ptr %69, i64 -5
  %71 = load float, ptr %70, align 4, !tbaa !28
  %72 = fsub float %68, %71
  store float %72, ptr %4, align 4, !tbaa !28
  %73 = load ptr, ptr %2, align 8, !tbaa !58
  %74 = getelementptr inbounds float, ptr %73, i64 -1
  %75 = load float, ptr %74, align 4, !tbaa !28
  %76 = load ptr, ptr %2, align 8, !tbaa !58
  %77 = getelementptr inbounds float, ptr %76, i64 -5
  %78 = load float, ptr %77, align 4, !tbaa !28
  %79 = fadd float %75, %78
  store float %79, ptr %8, align 4, !tbaa !28
  %80 = load ptr, ptr %2, align 8, !tbaa !58
  %81 = getelementptr inbounds float, ptr %80, i64 -3
  %82 = load float, ptr %81, align 4, !tbaa !28
  %83 = load ptr, ptr %2, align 8, !tbaa !58
  %84 = getelementptr inbounds float, ptr %83, i64 -7
  %85 = load float, ptr %84, align 4, !tbaa !28
  %86 = fadd float %82, %85
  store float %86, ptr %10, align 4, !tbaa !28
  %87 = load float, ptr %8, align 4, !tbaa !28
  %88 = load float, ptr %10, align 4, !tbaa !28
  %89 = fadd float %87, %88
  %90 = load ptr, ptr %2, align 8, !tbaa !58
  %91 = getelementptr inbounds float, ptr %90, i64 -1
  store float %89, ptr %91, align 4, !tbaa !28
  %92 = load float, ptr %8, align 4, !tbaa !28
  %93 = load float, ptr %10, align 4, !tbaa !28
  %94 = fsub float %92, %93
  %95 = load ptr, ptr %2, align 8, !tbaa !58
  %96 = getelementptr inbounds float, ptr %95, i64 -3
  store float %94, ptr %96, align 4, !tbaa !28
  %97 = load float, ptr %4, align 4, !tbaa !28
  %98 = load float, ptr %5, align 4, !tbaa !28
  %99 = fsub float %97, %98
  %100 = load ptr, ptr %2, align 8, !tbaa !58
  %101 = getelementptr inbounds float, ptr %100, i64 -5
  store float %99, ptr %101, align 4, !tbaa !28
  %102 = load float, ptr %4, align 4, !tbaa !28
  %103 = load float, ptr %5, align 4, !tbaa !28
  %104 = fadd float %102, %103
  %105 = load ptr, ptr %2, align 8, !tbaa !58
  %106 = getelementptr inbounds float, ptr %105, i64 -7
  store float %104, ptr %106, align 4, !tbaa !28
  call void @llvm.lifetime.end.p0(i64 4, ptr %10) #11
  call void @llvm.lifetime.end.p0(i64 4, ptr %9) #11
  call void @llvm.lifetime.end.p0(i64 4, ptr %8) #11
  call void @llvm.lifetime.end.p0(i64 4, ptr %7) #11
  call void @llvm.lifetime.end.p0(i64 4, ptr %6) #11
  call void @llvm.lifetime.end.p0(i64 4, ptr %5) #11
  call void @llvm.lifetime.end.p0(i64 4, ptr %4) #11
  call void @llvm.lifetime.end.p0(i64 4, ptr %3) #11
  ret void
}

; Function Attrs: nounwind uwtable
define void @imdct_step3_inner_s_loop_ld654(i32 noundef %0, ptr noundef %1, i32 noundef %2, ptr noundef %3, i32 noundef %4) #0 {
  %6 = alloca i32, align 4
  %7 = alloca ptr, align 8
  %8 = alloca i32, align 4
  %9 = alloca ptr, align 8
  %10 = alloca i32, align 4
  %11 = alloca i32, align 4
  %12 = alloca float, align 4
  %13 = alloca ptr, align 8
  %14 = alloca ptr, align 8
  %15 = alloca float, align 4
  %16 = alloca float, align 4
  %17 = alloca float, align 4
  %18 = alloca float, align 4
  store i32 %0, ptr %6, align 4, !tbaa !8
  store ptr %1, ptr %7, align 8, !tbaa !58
  store i32 %2, ptr %8, align 4, !tbaa !8
  store ptr %3, ptr %9, align 8, !tbaa !58
  store i32 %4, ptr %10, align 4, !tbaa !8
  call void @llvm.lifetime.start.p0(i64 4, ptr %11) #11
  %19 = load i32, ptr %10, align 4, !tbaa !8
  %20 = ashr i32 %19, 3
  store i32 %20, ptr %11, align 4, !tbaa !8
  call void @llvm.lifetime.start.p0(i64 4, ptr %12) #11
  %21 = load ptr, ptr %9, align 8, !tbaa !58
  %22 = load i32, ptr %11, align 4, !tbaa !8
  %23 = add nsw i32 0, %22
  %24 = sext i32 %23 to i64
  %25 = getelementptr inbounds float, ptr %21, i64 %24
  %26 = load float, ptr %25, align 4, !tbaa !28
  store float %26, ptr %12, align 4, !tbaa !28
  call void @llvm.lifetime.start.p0(i64 8, ptr %13) #11
  %27 = load ptr, ptr %7, align 8, !tbaa !58
  %28 = load i32, ptr %8, align 4, !tbaa !8
  %29 = sext i32 %28 to i64
  %30 = getelementptr inbounds float, ptr %27, i64 %29
  store ptr %30, ptr %13, align 8, !tbaa !58
  call void @llvm.lifetime.start.p0(i64 8, ptr %14) #11
  %31 = load ptr, ptr %13, align 8, !tbaa !58
  %32 = load i32, ptr %6, align 4, !tbaa !8
  %33 = mul nsw i32 16, %32
  %34 = sext i32 %33 to i64
  %35 = sub i64 0, %34
  %36 = getelementptr inbounds float, ptr %31, i64 %35
  store ptr %36, ptr %14, align 8, !tbaa !58
  br label %37

37:                                               ; preds = %41, %5
  %38 = load ptr, ptr %13, align 8, !tbaa !58
  %39 = load ptr, ptr %14, align 8, !tbaa !58
  %40 = icmp ugt ptr %38, %39
  br i1 %40, label %41, label %217

41:                                               ; preds = %37
  call void @llvm.lifetime.start.p0(i64 4, ptr %15) #11
  call void @llvm.lifetime.start.p0(i64 4, ptr %16) #11
  call void @llvm.lifetime.start.p0(i64 4, ptr %17) #11
  call void @llvm.lifetime.start.p0(i64 4, ptr %18) #11
  %42 = load ptr, ptr %13, align 8, !tbaa !58
  %43 = getelementptr inbounds float, ptr %42, i64 0
  %44 = load float, ptr %43, align 4, !tbaa !28
  %45 = load ptr, ptr %13, align 8, !tbaa !58
  %46 = getelementptr inbounds float, ptr %45, i64 -8
  %47 = load float, ptr %46, align 4, !tbaa !28
  %48 = fsub float %44, %47
  store float %48, ptr %15, align 4, !tbaa !28
  %49 = load ptr, ptr %13, align 8, !tbaa !58
  %50 = getelementptr inbounds float, ptr %49, i64 -1
  %51 = load float, ptr %50, align 4, !tbaa !28
  %52 = load ptr, ptr %13, align 8, !tbaa !58
  %53 = getelementptr inbounds float, ptr %52, i64 -9
  %54 = load float, ptr %53, align 4, !tbaa !28
  %55 = fsub float %51, %54
  store float %55, ptr %16, align 4, !tbaa !28
  %56 = load ptr, ptr %13, align 8, !tbaa !58
  %57 = getelementptr inbounds float, ptr %56, i64 -2
  %58 = load float, ptr %57, align 4, !tbaa !28
  %59 = load ptr, ptr %13, align 8, !tbaa !58
  %60 = getelementptr inbounds float, ptr %59, i64 -10
  %61 = load float, ptr %60, align 4, !tbaa !28
  %62 = fsub float %58, %61
  store float %62, ptr %17, align 4, !tbaa !28
  %63 = load ptr, ptr %13, align 8, !tbaa !58
  %64 = getelementptr inbounds float, ptr %63, i64 -3
  %65 = load float, ptr %64, align 4, !tbaa !28
  %66 = load ptr, ptr %13, align 8, !tbaa !58
  %67 = getelementptr inbounds float, ptr %66, i64 -11
  %68 = load float, ptr %67, align 4, !tbaa !28
  %69 = fsub float %65, %68
  store float %69, ptr %18, align 4, !tbaa !28
  %70 = load ptr, ptr %13, align 8, !tbaa !58
  %71 = getelementptr inbounds float, ptr %70, i64 0
  %72 = load float, ptr %71, align 4, !tbaa !28
  %73 = load ptr, ptr %13, align 8, !tbaa !58
  %74 = getelementptr inbounds float, ptr %73, i64 -8
  %75 = load float, ptr %74, align 4, !tbaa !28
  %76 = fadd float %72, %75
  %77 = load ptr, ptr %13, align 8, !tbaa !58
  %78 = getelementptr inbounds float, ptr %77, i64 0
  store float %76, ptr %78, align 4, !tbaa !28
  %79 = load ptr, ptr %13, align 8, !tbaa !58
  %80 = getelementptr inbounds float, ptr %79, i64 -1
  %81 = load float, ptr %80, align 4, !tbaa !28
  %82 = load ptr, ptr %13, align 8, !tbaa !58
  %83 = getelementptr inbounds float, ptr %82, i64 -9
  %84 = load float, ptr %83, align 4, !tbaa !28
  %85 = fadd float %81, %84
  %86 = load ptr, ptr %13, align 8, !tbaa !58
  %87 = getelementptr inbounds float, ptr %86, i64 -1
  store float %85, ptr %87, align 4, !tbaa !28
  %88 = load ptr, ptr %13, align 8, !tbaa !58
  %89 = getelementptr inbounds float, ptr %88, i64 -2
  %90 = load float, ptr %89, align 4, !tbaa !28
  %91 = load ptr, ptr %13, align 8, !tbaa !58
  %92 = getelementptr inbounds float, ptr %91, i64 -10
  %93 = load float, ptr %92, align 4, !tbaa !28
  %94 = fadd float %90, %93
  %95 = load ptr, ptr %13, align 8, !tbaa !58
  %96 = getelementptr inbounds float, ptr %95, i64 -2
  store float %94, ptr %96, align 4, !tbaa !28
  %97 = load ptr, ptr %13, align 8, !tbaa !58
  %98 = getelementptr inbounds float, ptr %97, i64 -3
  %99 = load float, ptr %98, align 4, !tbaa !28
  %100 = load ptr, ptr %13, align 8, !tbaa !58
  %101 = getelementptr inbounds float, ptr %100, i64 -11
  %102 = load float, ptr %101, align 4, !tbaa !28
  %103 = fadd float %99, %102
  %104 = load ptr, ptr %13, align 8, !tbaa !58
  %105 = getelementptr inbounds float, ptr %104, i64 -3
  store float %103, ptr %105, align 4, !tbaa !28
  %106 = load float, ptr %15, align 4, !tbaa !28
  %107 = load ptr, ptr %13, align 8, !tbaa !58
  %108 = getelementptr inbounds float, ptr %107, i64 -8
  store float %106, ptr %108, align 4, !tbaa !28
  %109 = load float, ptr %16, align 4, !tbaa !28
  %110 = load ptr, ptr %13, align 8, !tbaa !58
  %111 = getelementptr inbounds float, ptr %110, i64 -9
  store float %109, ptr %111, align 4, !tbaa !28
  %112 = load float, ptr %17, align 4, !tbaa !28
  %113 = load float, ptr %18, align 4, !tbaa !28
  %114 = fadd float %112, %113
  %115 = load float, ptr %12, align 4, !tbaa !28
  %116 = fmul float %114, %115
  %117 = load ptr, ptr %13, align 8, !tbaa !58
  %118 = getelementptr inbounds float, ptr %117, i64 -10
  store float %116, ptr %118, align 4, !tbaa !28
  %119 = load float, ptr %18, align 4, !tbaa !28
  %120 = load float, ptr %17, align 4, !tbaa !28
  %121 = fsub float %119, %120
  %122 = load float, ptr %12, align 4, !tbaa !28
  %123 = fmul float %121, %122
  %124 = load ptr, ptr %13, align 8, !tbaa !58
  %125 = getelementptr inbounds float, ptr %124, i64 -11
  store float %123, ptr %125, align 4, !tbaa !28
  %126 = load ptr, ptr %13, align 8, !tbaa !58
  %127 = getelementptr inbounds float, ptr %126, i64 -4
  %128 = load float, ptr %127, align 4, !tbaa !28
  %129 = load ptr, ptr %13, align 8, !tbaa !58
  %130 = getelementptr inbounds float, ptr %129, i64 -12
  %131 = load float, ptr %130, align 4, !tbaa !28
  %132 = fsub float %128, %131
  store float %132, ptr %15, align 4, !tbaa !28
  %133 = load ptr, ptr %13, align 8, !tbaa !58
  %134 = getelementptr inbounds float, ptr %133, i64 -5
  %135 = load float, ptr %134, align 4, !tbaa !28
  %136 = load ptr, ptr %13, align 8, !tbaa !58
  %137 = getelementptr inbounds float, ptr %136, i64 -13
  %138 = load float, ptr %137, align 4, !tbaa !28
  %139 = fsub float %135, %138
  store float %139, ptr %16, align 4, !tbaa !28
  %140 = load ptr, ptr %13, align 8, !tbaa !58
  %141 = getelementptr inbounds float, ptr %140, i64 -6
  %142 = load float, ptr %141, align 4, !tbaa !28
  %143 = load ptr, ptr %13, align 8, !tbaa !58
  %144 = getelementptr inbounds float, ptr %143, i64 -14
  %145 = load float, ptr %144, align 4, !tbaa !28
  %146 = fsub float %142, %145
  store float %146, ptr %17, align 4, !tbaa !28
  %147 = load ptr, ptr %13, align 8, !tbaa !58
  %148 = getelementptr inbounds float, ptr %147, i64 -7
  %149 = load float, ptr %148, align 4, !tbaa !28
  %150 = load ptr, ptr %13, align 8, !tbaa !58
  %151 = getelementptr inbounds float, ptr %150, i64 -15
  %152 = load float, ptr %151, align 4, !tbaa !28
  %153 = fsub float %149, %152
  store float %153, ptr %18, align 4, !tbaa !28
  %154 = load ptr, ptr %13, align 8, !tbaa !58
  %155 = getelementptr inbounds float, ptr %154, i64 -4
  %156 = load float, ptr %155, align 4, !tbaa !28
  %157 = load ptr, ptr %13, align 8, !tbaa !58
  %158 = getelementptr inbounds float, ptr %157, i64 -12
  %159 = load float, ptr %158, align 4, !tbaa !28
  %160 = fadd float %156, %159
  %161 = load ptr, ptr %13, align 8, !tbaa !58
  %162 = getelementptr inbounds float, ptr %161, i64 -4
  store float %160, ptr %162, align 4, !tbaa !28
  %163 = load ptr, ptr %13, align 8, !tbaa !58
  %164 = getelementptr inbounds float, ptr %163, i64 -5
  %165 = load float, ptr %164, align 4, !tbaa !28
  %166 = load ptr, ptr %13, align 8, !tbaa !58
  %167 = getelementptr inbounds float, ptr %166, i64 -13
  %168 = load float, ptr %167, align 4, !tbaa !28
  %169 = fadd float %165, %168
  %170 = load ptr, ptr %13, align 8, !tbaa !58
  %171 = getelementptr inbounds float, ptr %170, i64 -5
  store float %169, ptr %171, align 4, !tbaa !28
  %172 = load ptr, ptr %13, align 8, !tbaa !58
  %173 = getelementptr inbounds float, ptr %172, i64 -6
  %174 = load float, ptr %173, align 4, !tbaa !28
  %175 = load ptr, ptr %13, align 8, !tbaa !58
  %176 = getelementptr inbounds float, ptr %175, i64 -14
  %177 = load float, ptr %176, align 4, !tbaa !28
  %178 = fadd float %174, %177
  %179 = load ptr, ptr %13, align 8, !tbaa !58
  %180 = getelementptr inbounds float, ptr %179, i64 -6
  store float %178, ptr %180, align 4, !tbaa !28
  %181 = load ptr, ptr %13, align 8, !tbaa !58
  %182 = getelementptr inbounds float, ptr %181, i64 -7
  %183 = load float, ptr %182, align 4, !tbaa !28
  %184 = load ptr, ptr %13, align 8, !tbaa !58
  %185 = getelementptr inbounds float, ptr %184, i64 -15
  %186 = load float, ptr %185, align 4, !tbaa !28
  %187 = fadd float %183, %186
  %188 = load ptr, ptr %13, align 8, !tbaa !58
  %189 = getelementptr inbounds float, ptr %188, i64 -7
  store float %187, ptr %189, align 4, !tbaa !28
  %190 = load float, ptr %16, align 4, !tbaa !28
  %191 = load ptr, ptr %13, align 8, !tbaa !58
  %192 = getelementptr inbounds float, ptr %191, i64 -12
  store float %190, ptr %192, align 4, !tbaa !28
  %193 = load float, ptr %15, align 4, !tbaa !28
  %194 = fneg float %193
  %195 = load ptr, ptr %13, align 8, !tbaa !58
  %196 = getelementptr inbounds float, ptr %195, i64 -13
  store float %194, ptr %196, align 4, !tbaa !28
  %197 = load float, ptr %18, align 4, !tbaa !28
  %198 = load float, ptr %17, align 4, !tbaa !28
  %199 = fsub float %197, %198
  %200 = load float, ptr %12, align 4, !tbaa !28
  %201 = fmul float %199, %200
  %202 = load ptr, ptr %13, align 8, !tbaa !58
  %203 = getelementptr inbounds float, ptr %202, i64 -14
  store float %201, ptr %203, align 4, !tbaa !28
  %204 = load float, ptr %17, align 4, !tbaa !28
  %205 = load float, ptr %18, align 4, !tbaa !28
  %206 = fadd float %204, %205
  %207 = load float, ptr %12, align 4, !tbaa !28
  %208 = fneg float %207
  %209 = fmul float %206, %208
  %210 = load ptr, ptr %13, align 8, !tbaa !58
  %211 = getelementptr inbounds float, ptr %210, i64 -15
  store float %209, ptr %211, align 4, !tbaa !28
  %212 = load ptr, ptr %13, align 8, !tbaa !58
  call void @iter_54(ptr noundef %212)
  %213 = load ptr, ptr %13, align 8, !tbaa !58
  %214 = getelementptr inbounds float, ptr %213, i64 -8
  call void @iter_54(ptr noundef %214)
  %215 = load ptr, ptr %13, align 8, !tbaa !58
  %216 = getelementptr inbounds float, ptr %215, i64 -16
  store ptr %216, ptr %13, align 8, !tbaa !58
  call void @llvm.lifetime.end.p0(i64 4, ptr %18) #11
  call void @llvm.lifetime.end.p0(i64 4, ptr %17) #11
  call void @llvm.lifetime.end.p0(i64 4, ptr %16) #11
  call void @llvm.lifetime.end.p0(i64 4, ptr %15) #11
  br label %37, !llvm.loop !143

217:                                              ; preds = %37
  call void @llvm.lifetime.end.p0(i64 8, ptr %14) #11
  call void @llvm.lifetime.end.p0(i64 8, ptr %13) #11
  call void @llvm.lifetime.end.p0(i64 4, ptr %12) #11
  call void @llvm.lifetime.end.p0(i64 4, ptr %11) #11
  ret void
}