; Function Attrs: nofree norecurse nosync nounwind memory(argmem: readwrite) uwtable
define void @imdct_step3_inner_s_loop_ld654(i32 noundef %0, ptr noundef captures(address) %1, i32 noundef %2, ptr noundef readonly captures(none) %3, i32 noundef %4) local_unnamed_addr #25 {
  %6 = ashr i32 %4, 3
  %7 = sext i32 %6 to i64
  %8 = getelementptr inbounds float, ptr %3, i64 %7
  %9 = load float, ptr %8, align 4, !tbaa !48
  %10 = sext i32 %2 to i64
  %11 = getelementptr inbounds float, ptr %1, i64 %10
  %12 = shl nsw i32 %0, 4
  %13 = sext i32 %12 to i64
  %14 = sub nsw i64 0, %13
  %15 = getelementptr inbounds float, ptr %11, i64 %14
  %16 = icmp sgt i32 %0, 0
  br i1 %16, label %.lr.ph, label %._crit_edge

.lr.ph:                                           ; preds = %5
  %17 = fneg float %9
  br label %18

18:                                               ; preds = %.lr.ph, %18
  %.075 = phi ptr [ %11, %.lr.ph ], [ %106, %18 ]
  %19 = load float, ptr %.075, align 4, !tbaa !48
  %20 = getelementptr inbounds i8, ptr %.075, i64 -32
  %21 = load float, ptr %20, align 4, !tbaa !48
  %22 = fsub float %19, %21
  %23 = getelementptr inbounds i8, ptr %.075, i64 -4
  %24 = load float, ptr %23, align 4, !tbaa !48
  %25 = getelementptr inbounds i8, ptr %.075, i64 -36
  %26 = load float, ptr %25, align 4, !tbaa !48
  %27 = fsub float %24, %26
  %28 = getelementptr inbounds i8, ptr %.075, i64 -8
  %29 = load float, ptr %28, align 4, !tbaa !48
  %30 = getelementptr inbounds i8, ptr %.075, i64 -40
  %31 = load float, ptr %30, align 4, !tbaa !48
  %32 = fsub float %29, %31
  %33 = getelementptr inbounds i8, ptr %.075, i64 -12
  %34 = load float, ptr %33, align 4, !tbaa !48
  %35 = getelementptr inbounds i8, ptr %.075, i64 -44
  %36 = load float, ptr %35, align 4, !tbaa !48
  %37 = fsub float %34, %36
  %38 = fadd float %19, %21
  %39 = fadd float %24, %26
  %40 = fadd float %29, %31
  %41 = fadd float %34, %36
  %42 = fadd float %32, %37
  %43 = fmul float %9, %42
  %44 = fsub float %37, %32
  %45 = fmul float %9, %44
  %46 = getelementptr inbounds i8, ptr %.075, i64 -16
  %47 = load float, ptr %46, align 4, !tbaa !48
  %48 = getelementptr inbounds i8, ptr %.075, i64 -48
  %49 = load float, ptr %48, align 4, !tbaa !48
  %50 = fsub float %47, %49
  %51 = getelementptr inbounds i8, ptr %.075, i64 -20
  %52 = load float, ptr %51, align 4, !tbaa !48
  %53 = getelementptr inbounds i8, ptr %.075, i64 -52
  %54 = load float, ptr %53, align 4, !tbaa !48
  %55 = fsub float %52, %54
  %56 = getelementptr inbounds i8, ptr %.075, i64 -24
  %57 = load float, ptr %56, align 4, !tbaa !48
  %58 = getelementptr inbounds i8, ptr %.075, i64 -56
  %59 = load float, ptr %58, align 4, !tbaa !48
  %60 = fsub float %57, %59
  %61 = getelementptr inbounds i8, ptr %.075, i64 -28
  %62 = load float, ptr %61, align 4, !tbaa !48
  %63 = getelementptr inbounds i8, ptr %.075, i64 -60
  %64 = load float, ptr %63, align 4, !tbaa !48
  %65 = fsub float %62, %64
  %66 = fadd float %47, %49
  %67 = fadd float %52, %54
  %68 = fadd float %57, %59
  %69 = fadd float %62, %64
  %70 = fsub float %65, %60
  %71 = fmul float %9, %70
  %72 = fadd float %60, %65
  %73 = fmul float %72, %17
  %74 = fsub float %38, %66
  %75 = fadd float %38, %66
  %76 = fadd float %40, %68
  %77 = fsub float %40, %68
  %78 = fadd float %75, %76
  store float %78, ptr %.075, align 4, !tbaa !48
  %79 = fsub float %75, %76
  store float %79, ptr %28, align 4, !tbaa !48
  %80 = fsub float %41, %69
  %81 = fadd float %74, %80
  store float %81, ptr %46, align 4, !tbaa !48
  %82 = fsub float %74, %80
  store float %82, ptr %56, align 4, !tbaa !48
  %83 = fsub float %39, %67
  %84 = fadd float %39, %67
  %85 = fadd float %41, %69
  %86 = fadd float %84, %85
  store float %86, ptr %23, align 4, !tbaa !48
  %87 = fsub float %84, %85
  store float %87, ptr %33, align 4, !tbaa !48
  %88 = fsub float %83, %77
  store float %88, ptr %51, align 4, !tbaa !48
  %89 = fadd float %83, %77
  store float %89, ptr %61, align 4, !tbaa !48
  %90 = fsub float %22, %55
  %91 = fadd float %22, %55
  %92 = fadd float %43, %71
  %93 = fsub float %43, %71
  %94 = fadd float %91, %92
  store float %94, ptr %20, align 4, !tbaa !48
  %95 = fsub float %91, %92
  store float %95, ptr %30, align 4, !tbaa !48
  %96 = fsub float %45, %73
  %97 = fadd float %90, %96
  store float %97, ptr %48, align 4, !tbaa !48
  %98 = fsub float %90, %96
  store float %98, ptr %58, align 4, !tbaa !48
  %99 = fadd float %27, %50
  %100 = fsub float %27, %50
  %101 = fadd float %45, %73
  %102 = fadd float %101, %100
  store float %102, ptr %25, align 4, !tbaa !48
  %103 = fsub float %100, %101
  store float %103, ptr %35, align 4, !tbaa !48
  %104 = fsub float %99, %93
  store float %104, ptr %53, align 4, !tbaa !48
  %105 = fadd float %93, %99
  store float %105, ptr %63, align 4, !tbaa !48
  %106 = getelementptr inbounds i8, ptr %.075, i64 -64
  %107 = icmp ugt ptr %106, %15
  br i1 %107, label %18, label %._crit_edge, !llvm.loop !130

._crit_edge:                                      ; preds = %18, %5
  ret void
}